target datalayout = "e-m:e-p270:32:32-p271:32:32-p272:64:64-i64:64-i128:128-f80:128-n8:16:32:64-S128"
target triple = "x86_64-pc-linux-gnu"

%struct.stat = type { i64, i64, i64, i32, i32, i32, i32, i64, i64, i64, i64, %struct.timespec, %struct.timespec, %struct.timespec, [3 x i64] }
%struct.timespec = type { i64, i64 }

; Function Attrs: nounwind uwtable
define ptr @cl_hash_file_fd_ctx(ptr noundef %0, i32 noundef %1, ptr noundef %2) #0 {
  %4 = alloca ptr, align 8
  %5 = alloca ptr, align 8
  %6 = alloca i32, align 4
  %7 = alloca ptr, align 8
  %8 = alloca ptr, align 8
  %9 = alloca ptr, align 8
  %10 = alloca i32, align 4
  %11 = alloca i32, align 4
  %12 = alloca %struct.stat, align 8
  %13 = alloca i32, align 4
  %14 = alloca i32, align 4
  %15 = alloca i64, align 8
  %16 = alloca i32, align 4
  store ptr %0, ptr %5, align 8, !tbaa !17
  store i32 %1, ptr %6, align 4, !tbaa !13
  store ptr %2, ptr %7, align 8, !tbaa !11
  call void @llvm.lifetime.start.p0(i64 8, ptr %8) #8
  call void @llvm.lifetime.start.p0(i64 8, ptr %9) #8
  call void @llvm.lifetime.start.p0(i64 4, ptr %10) #8
  call void @llvm.lifetime.start.p0(i64 4, ptr %11) #8
  call void @llvm.lifetime.start.p0(i64 144, ptr %12) #8
  call void @llvm.lifetime.start.p0(i64 4, ptr %13) #8
  store i32 0, ptr %13, align 4, !tbaa !13
  call void @llvm.lifetime.start.p0(i64 4, ptr %14) #8
  call void @llvm.lifetime.start.p0(i64 8, ptr %15) #8
  %17 = load ptr, ptr %5, align 8, !tbaa !17
  %18 = call ptr @EVP_MD_CTX_get0_md(ptr noundef %17)
  %19 = call i32 @EVP_MD_get_size(ptr noundef %18)
  store i32 %19, ptr %10, align 4, !tbaa !13
  %20 = load i32, ptr %6, align 4, !tbaa !13
  %21 = call i32 @fstat(i32 noundef %20, ptr noundef %12) #8
  %22 = icmp slt i32 %21, 0
  br i1 %22, label %23, label %24

23:                                               ; preds = %3
  store ptr null, ptr %4, align 8
  store i32 1, ptr %16, align 4
  br label %83

24:                                               ; preds = %3
  %25 = getelementptr inbounds nuw %struct.stat, ptr %12, i32 0, i32 9
  %26 = load i64, ptr %25, align 8, !tbaa !19
  %27 = trunc i64 %26 to i32
  store i32 %27, ptr %14, align 4, !tbaa !13
  %28 = load i32, ptr %14, align 4, !tbaa !13
  %29 = zext i32 %28 to i64
  %30 = call noalias ptr @malloc(i64 noundef %29) #9
  store ptr %30, ptr %8, align 8, !tbaa !3
  %31 = load ptr, ptr %8, align 8, !tbaa !3
  %32 = icmp ne ptr %31, null
  br i1 %32, label %34, label %33

33:                                               ; preds = %24
  store ptr null, ptr %4, align 8
  store i32 1, ptr %16, align 4
  br label %83

34:                                               ; preds = %24
  %35 = load i32, ptr %10, align 4, !tbaa !13
  %36 = sext i32 %35 to i64
  %37 = call noalias ptr @malloc(i64 noundef %36) #9
  store ptr %37, ptr %9, align 8, !tbaa !3
  %38 = load ptr, ptr %9, align 8, !tbaa !3
  %39 = icmp ne ptr %38, null
  br i1 %39, label %42, label %40

40:                                               ; preds = %34
  %41 = load ptr, ptr %8, align 8, !tbaa !3
  call void @free(ptr noundef %41) #8
  store ptr null, ptr %4, align 8
  store i32 1, ptr %16, align 4
  br label %83

42:                                               ; preds = %34
  br label %43

43:                                               ; preds = %65, %42
  %44 = load i32, ptr %6, align 4, !tbaa !13
  %45 = load ptr, ptr %8, align 8, !tbaa !3
  %46 = load i32, ptr %14, align 4, !tbaa !13
  %47 = zext i32 %46 to i64
  %48 = call i64 @read(i32 noundef %44, ptr noundef %45, i64 noundef %47)
  store i64 %48, ptr %15, align 8, !tbaa !9
  %49 = icmp sgt i64 %48, 0
  br i1 %49, label %50, label %66

50:                                               ; preds = %43
  %51 = load ptr, ptr %5, align 8, !tbaa !17
  %52 = load ptr, ptr %8, align 8, !tbaa !3
  %53 = load i64, ptr %15, align 8, !tbaa !9
  %54 = call i32 @EVP_DigestUpdate(ptr noundef %51, ptr noundef %52, i64 noundef %53)
  %55 = icmp ne i32 %54, 0
  br i1 %55, label %59, label %56

56:                                               ; preds = %50
  %57 = load ptr, ptr %8, align 8, !tbaa !3
  call void @free(ptr noundef %57) #8
  %58 = load ptr, ptr %9, align 8, !tbaa !3
  call void @free(ptr noundef %58) #8
  store ptr null, ptr %4, align 8
  store i32 1, ptr %16, align 4
  br label %83

59:                                               ; preds = %50
  %60 = load i32, ptr %13, align 4, !tbaa !13
  %61 = icmp ne i32 %60, 0
  br i1 %61, label %62, label %65

62:                                               ; preds = %59
  %63 = load ptr, ptr %8, align 8, !tbaa !3
  call void @free(ptr noundef %63) #8
  %64 = load ptr, ptr %9, align 8, !tbaa !3
  call void @free(ptr noundef %64) #8
  store ptr null, ptr %4, align 8
  store i32 1, ptr %16, align 4
  br label %83

65:                                               ; preds = %59
  br label %43

66:                                               ; preds = %43
  %67 = load ptr, ptr %5, align 8, !tbaa !17
  %68 = load ptr, ptr %9, align 8, !tbaa !3
  %69 = call i32 @EVP_DigestFinal_ex(ptr noundef %67, ptr noundef %68, ptr noundef %11)
  %70 = icmp ne i32 %69, 0
  br i1 %70, label %74, label %71

71:                                               ; preds = %66
  %72 = load ptr, ptr %9, align 8, !tbaa !3
  call void @free(ptr noundef %72) #8
  %73 = load ptr, ptr %8, align 8, !tbaa !3
  call void @free(ptr noundef %73) #8
  store ptr null, ptr %4, align 8
  store i32 1, ptr %16, align 4
  br label %83

74:                                               ; preds = %66
  %75 = load ptr, ptr %7, align 8, !tbaa !11
  %76 = icmp ne ptr %75, null
  br i1 %76, label %77, label %80

77:                                               ; preds = %74
  %78 = load i32, ptr %11, align 4, !tbaa !13
  %79 = load ptr, ptr %7, align 8, !tbaa !11
  store i32 %78, ptr %79, align 4, !tbaa !13
  br label %80

80:                                               ; preds = %77, %74
  %81 = load ptr, ptr %8, align 8, !tbaa !3
  call void @free(ptr noundef %81) #8
  %82 = load ptr, ptr %9, align 8, !tbaa !3
  store ptr %82, ptr %4, align 8
  store i32 1, ptr %16, align 4
  br label %83

83:                                               ; preds = %80, %71, %62, %56, %40, %33, %23
  call void @llvm.lifetime.end.p0(i64 8, ptr %15) #8
  call void @llvm.lifetime.end.p0(i64 4, ptr %14) #8
  call void @llvm.lifetime.end.p0(i64 4, ptr %13) #8
  call void @llvm.lifetime.end.p0(i64 144, ptr %12) #8
  call void @llvm.lifetime.end.p0(i64 4, ptr %11) #8
  call void @llvm.lifetime.end.p0(i64 4, ptr %10) #8
  call void @llvm.lifetime.end.p0(i64 8, ptr %9) #8
  call void @llvm.lifetime.end.p0(i64 8, ptr %8) #8
  %84 = load ptr, ptr %4, align 8
  ret ptr %84
}