; Function Attrs: nounwind uwtable
define noundef ptr @cl_hash_file_fd_ctx(ptr noundef %0, i32 noundef %1, ptr noundef writeonly %2) local_unnamed_addr #1 {
  %4 = alloca i32, align 4
  %5 = alloca %struct.stat, align 8
  call void @llvm.lifetime.start.p0(i64 4, ptr nonnull %4) #12
  call void @llvm.lifetime.start.p0(i64 144, ptr nonnull %5) #12
  %6 = tail call ptr @EVP_MD_CTX_get0_md(ptr noundef %0) #12
  %7 = tail call i32 @EVP_MD_get_size(ptr noundef %6) #12
  %8 = call i32 @fstat(i32 noundef %1, ptr noundef nonnull %5) #12
  %9 = icmp slt i32 %8, 0
  br i1 %9, label %31, label %10

10:                                               ; preds = %3
  %11 = getelementptr inbounds nuw i8, ptr %5, i64 56
  %12 = load i64, ptr %11, align 8, !tbaa !7
  %13 = and i64 %12, 4294967295
  %14 = tail call noalias ptr @malloc(i64 noundef %13) #13
  %.not = icmp eq ptr %14, null
  br i1 %.not, label %31, label %15

15:                                               ; preds = %10
  %16 = sext i32 %7 to i64
  %17 = tail call noalias ptr @malloc(i64 noundef %16) #13
  %.not29 = icmp eq ptr %17, null
  br i1 %.not29, label %18, label %.preheader

18:                                               ; preds = %15
  tail call void @free(ptr noundef nonnull %14) #12
  br label %31

.preheader:                                       ; preds = %15, %21
  %19 = tail call i64 @read(i32 noundef %1, ptr noundef nonnull %14, i64 noundef %13) #12
  %20 = icmp sgt i64 %19, 0
  br i1 %20, label %21, label %24

21:                                               ; preds = %.preheader
  %22 = tail call i32 @EVP_DigestUpdate(ptr noundef %0, ptr noundef nonnull %14, i64 noundef %19) #12
  %.not32 = icmp eq i32 %22, 0
  br i1 %.not32, label %23, label %.preheader

23:                                               ; preds = %21
  tail call void @free(ptr noundef nonnull %14) #12
  tail call void @free(ptr noundef %17) #12
  br label %31

24:                                               ; preds = %.preheader
  %25 = call i32 @EVP_DigestFinal_ex(ptr noundef %0, ptr noundef nonnull %17, ptr noundef nonnull %4) #12
  %.not30 = icmp eq i32 %25, 0
  br i1 %.not30, label %26, label %27

26:                                               ; preds = %24
  call void @free(ptr noundef nonnull %17) #12
  call void @free(ptr noundef nonnull %14) #12
  br label %31

27:                                               ; preds = %24
  %.not31 = icmp eq ptr %2, null
  br i1 %.not31, label %30, label %28

28:                                               ; preds = %27
  %29 = load i32, ptr %4, align 4, !tbaa !3
  store i32 %29, ptr %2, align 4, !tbaa !3
  br label %30

30:                                               ; preds = %28, %27
  call void @free(ptr noundef nonnull %14) #12
  br label %31

31:                                               ; preds = %10, %3, %30, %26, %23, %18
  %.0 = phi ptr [ null, %23 ], [ %17, %30 ], [ null, %26 ], [ null, %18 ], [ null, %3 ], [ null, %10 ]
  call void @llvm.lifetime.end.p0(i64 144, ptr nonnull %5) #12
  call void @llvm.lifetime.end.p0(i64 4, ptr nonnull %4) #12
  ret ptr %.0
}